target datalayout = "e-m:e-p270:32:32-p271:32:32-p272:64:64-i64:64-i128:128-f80:128-n8:16:32:64-S128"
target triple = "x86_64-pc-linux-gnu"

%struct.AVProbeData = type { ptr, ptr, i32, ptr }

; Function Attrs: alwaysinline nounwind willreturn memory(none) uwtable
define internal i32 @av_bswap32(i32 noundef %0) #2 {
  %2 = alloca i32, align 4
  store i32 %0, ptr %2, align 4, !tbaa !15
  %3 = load i32, ptr %2, align 4, !tbaa !15
  %4 = shl i32 %3, 8
  %5 = and i32 %4, 65280
  %6 = load i32, ptr %2, align 4, !tbaa !15
  %7 = lshr i32 %6, 8
  %8 = and i32 %7, 255
  %9 = or i32 %5, %8
  %10 = shl i32 %9, 16
  %11 = load i32, ptr %2, align 4, !tbaa !15
  %12 = lshr i32 %11, 16
  %13 = shl i32 %12, 8
  %14 = and i32 %13, 65280
  %15 = load i32, ptr %2, align 4, !tbaa !15
  %16 = lshr i32 %15, 16
  %17 = lshr i32 %16, 8
  %18 = and i32 %17, 255
  %19 = or i32 %14, %18
  %20 = or i32 %10, %19
  ret i32 %20
}

; Function Attrs: alwaysinline nounwind willreturn memory(none) uwtable
define internal zeroext i16 @av_bswap16(i16 noundef zeroext %0) #2 {
  %2 = alloca i16, align 2
  store i16 %0, ptr %2, align 2, !tbaa !62
  %3 = load i16, ptr %2, align 2, !tbaa !62
  %4 = zext i16 %3 to i32
  %5 = ashr i32 %4, 8
  %6 = load i16, ptr %2, align 2, !tbaa !62
  %7 = zext i16 %6 to i32
  %8 = shl i32 %7, 8
  %9 = or i32 %5, %8
  %10 = trunc i32 %9 to i16
  store i16 %10, ptr %2, align 2, !tbaa !62
  %11 = load i16, ptr %2, align 2, !tbaa !62
  ret i16 %11
}

; Function Attrs: nounwind uwtable
define internal i32 @lmlm4_probe(ptr noundef %0) #0 {
  %2 = alloca i32, align 4
  %3 = alloca ptr, align 8
  %4 = alloca ptr, align 8
  %5 = alloca i32, align 4
  %6 = alloca i32, align 4
  %7 = alloca i32, align 4
  store ptr %0, ptr %3, align 8, !tbaa !4
  call void @llvm.lifetime.start.p0(i64 8, ptr %4) #5
  %8 = load ptr, ptr %3, align 8, !tbaa !4
  %9 = getelementptr inbounds nuw %struct.AVProbeData, ptr %8, i32 0, i32 1
  %10 = load ptr, ptr %9, align 8, !tbaa !9
  store ptr %10, ptr %4, align 8, !tbaa !13
  call void @llvm.lifetime.start.p0(i64 4, ptr %5) #5
  call void @llvm.lifetime.start.p0(i64 4, ptr %6) #5
  %11 = load ptr, ptr %4, align 8, !tbaa !13
  %12 = getelementptr inbounds i8, ptr %11, i64 2
  %13 = load i16, ptr %12, align 1, !tbaa !14
  %14 = call zeroext i16 @av_bswap16(i16 noundef zeroext %13) #6
  %15 = zext i16 %14 to i32
  store i32 %15, ptr %5, align 4, !tbaa !15
  %16 = load ptr, ptr %4, align 8, !tbaa !13
  %17 = getelementptr inbounds i8, ptr %16, i64 4
  %18 = load i32, ptr %17, align 1, !tbaa !14
  %19 = call i32 @av_bswap32(i32 noundef %18) #6
  store i32 %19, ptr %6, align 4, !tbaa !15
  %20 = load ptr, ptr %4, align 8, !tbaa !13
  %21 = load i16, ptr %20, align 1, !tbaa !14
  %22 = call zeroext i16 @av_bswap16(i16 noundef zeroext %21) #6
  %23 = icmp ne i16 %22, 0
  br i1 %23, label %73, label %24

24:                                               ; preds = %1
  %25 = load i32, ptr %5, align 4, !tbaa !15
  %26 = icmp ule i32 %25, 4
  br i1 %26, label %27, label %73

27:                                               ; preds = %24
  %28 = load i32, ptr %6, align 4, !tbaa !15
  %29 = icmp ne i32 %28, 0
  br i1 %29, label %30, label %73

30:                                               ; preds = %27
  %31 = load i32, ptr %5, align 4, !tbaa !15
  %32 = icmp ne i32 %31, 3
  br i1 %32, label %33, label %73

33:                                               ; preds = %30
  %34 = load i32, ptr %6, align 4, !tbaa !15
  %35 = icmp ule i32 %34, 1048576
  br i1 %35, label %36, label %73

36:                                               ; preds = %33
  %37 = load i32, ptr %5, align 4, !tbaa !15
  %38 = icmp eq i32 %37, 4
  br i1 %38, label %39, label %49

39:                                               ; preds = %36
  %40 = load ptr, ptr %4, align 8, !tbaa !13
  %41 = getelementptr inbounds i8, ptr %40, i64 8
  %42 = load i16, ptr %41, align 1, !tbaa !14
  %43 = call zeroext i16 @av_bswap16(i16 noundef zeroext %42) #6
  %44 = zext i16 %43 to i32
  %45 = and i32 %44, 65534
  %46 = icmp ne i32 %45, 65532
  br i1 %46, label %47, label %48

47:                                               ; preds = %39
  store i32 0, ptr %2, align 4
  store i32 1, ptr %7, align 4
  br label %74

48:                                               ; preds = %39
  store i32 33, ptr %2, align 4
  store i32 1, ptr %7, align 4
  br label %74

49:                                               ; preds = %36
  %50 = load ptr, ptr %4, align 8, !tbaa !13
  %51 = getelementptr inbounds i8, ptr %50, i64 8
  %52 = getelementptr inbounds i8, ptr %51, i64 0
  %53 = load i8, ptr %52, align 1, !tbaa !14
  %54 = zext i8 %53 to i32
  %55 = shl i32 %54, 16
  %56 = load ptr, ptr %4, align 8, !tbaa !13
  %57 = getelementptr inbounds i8, ptr %56, i64 8
  %58 = getelementptr inbounds i8, ptr %57, i64 1
  %59 = load i8, ptr %58, align 1, !tbaa !14
  %60 = zext i8 %59 to i32
  %61 = shl i32 %60, 8
  %62 = or i32 %55, %61
  %63 = load ptr, ptr %4, align 8, !tbaa !13
  %64 = getelementptr inbounds i8, ptr %63, i64 8
  %65 = getelementptr inbounds i8, ptr %64, i64 2
  %66 = load i8, ptr %65, align 1, !tbaa !14
  %67 = zext i8 %66 to i32
  %68 = or i32 %62, %67
  %69 = icmp eq i32 %68, 1
  br i1 %69, label %70, label %71

70:                                               ; preds = %49
  store i32 20, ptr %2, align 4
  store i32 1, ptr %7, align 4
  br label %74

71:                                               ; preds = %49
  br label %72

72:                                               ; preds = %71
  br label %73

73:                                               ; preds = %72, %33, %30, %27, %24, %1
  store i32 0, ptr %2, align 4
  store i32 1, ptr %7, align 4
  br label %74

74:                                               ; preds = %73, %70, %48, %47
  call void @llvm.lifetime.end.p0(i64 4, ptr %6) #5
  call void @llvm.lifetime.end.p0(i64 4, ptr %5) #5
  call void @llvm.lifetime.end.p0(i64 8, ptr %4) #5
  %75 = load i32, ptr %2, align 4
  ret i32 %75
}