; Function Attrs: mustprogress nofree norecurse nosync nounwind willreturn memory(read, inaccessiblemem: none) uwtable
define internal range(i32 0, 34) i32 @lmlm4_probe(ptr noundef readonly captures(none) %0) #0 {
  %2 = getelementptr inbounds nuw i8, ptr %0, i64 8
  %3 = load ptr, ptr %2, align 8, !tbaa !4
  %4 = getelementptr inbounds nuw i8, ptr %3, i64 2
  %5 = load i16, ptr %4, align 1, !tbaa !11
  %6 = tail call i16 @llvm.bswap.i16(i16 %5)
  %7 = getelementptr inbounds nuw i8, ptr %3, i64 4
  %8 = load i32, ptr %7, align 1, !tbaa !11
  %9 = tail call i32 @llvm.bswap.i32(i32 %8)
  %10 = load i16, ptr %3, align 1, !tbaa !11
  %11 = icmp eq i16 %10, 0
  %12 = icmp ult i16 %6, 5
  %or.cond = select i1 %11, i1 %12, i1 false
  %13 = icmp ne i32 %8, 0
  %or.cond3 = select i1 %or.cond, i1 %13, i1 false
  %14 = icmp ne i16 %5, 768
  %or.cond5 = select i1 %or.cond3, i1 %14, i1 false
  %15 = icmp ult i32 %9, 1048577
  %or.cond7 = select i1 %or.cond5, i1 %15, i1 false
  br i1 %or.cond7, label %16, label %36

16:                                               ; preds = %1
  %17 = icmp eq i16 %5, 1024
  %18 = getelementptr inbounds nuw i8, ptr %3, i64 8
  br i1 %17, label %19, label %22

19:                                               ; preds = %16
  %20 = load i16, ptr %18, align 1, !tbaa !11
  %21 = and i16 %20, -257
  %.not = icmp eq i16 %21, -769
  %. = select i1 %.not, i32 33, i32 0
  br label %37

22:                                               ; preds = %16
  %23 = load i8, ptr %18, align 1, !tbaa !11
  %24 = zext i8 %23 to i32
  %25 = shl nuw nsw i32 %24, 16
  %26 = getelementptr inbounds nuw i8, ptr %3, i64 9
  %27 = load i8, ptr %26, align 1, !tbaa !11
  %28 = zext i8 %27 to i32
  %29 = shl nuw nsw i32 %28, 8
  %30 = or disjoint i32 %29, %25
  %31 = getelementptr inbounds nuw i8, ptr %3, i64 10
  %32 = load i8, ptr %31, align 1, !tbaa !11
  %33 = zext i8 %32 to i32
  %34 = or disjoint i32 %30, %33
  %35 = icmp eq i32 %34, 1
  br i1 %35, label %37, label %36

36:                                               ; preds = %22, %1
  br label %37

37:                                               ; preds = %22, %19, %36
  %.0 = phi i32 [ 0, %36 ], [ %., %19 ], [ 20, %22 ]
  ret i32 %.0
}